; Function Attrs: mustprogress uwtable
define internal void @_ZN9nix_storeL12opRepairPathENSt7__cxx114listINS0_12basic_stringIcSt11char_traitsIcESaIcEEESaIS6_EEES8_(ptr noundef readonly %0, ptr noundef readonly %1) #5 personality ptr @__gxx_personality_v0 {
  %3 = alloca %"class.std::__cxx11::basic_string", align 8
  %4 = alloca %"class.std::allocator", align 1
  %5 = alloca %"class.nix::StorePath", align 8
  %6 = load ptr, ptr %0, align 8
  %7 = icmp eq ptr %6, %0
  br i1 %7, label %.preheader, label %11

.preheader:                                       ; preds = %2
  %.sroa.012.018 = load ptr, ptr %1, align 8
  %8 = icmp eq ptr %.sroa.012.018, %1
  br i1 %8, label %._crit_edge, label %.lr.ph

.lr.ph:                                           ; preds = %.preheader
  %9 = getelementptr inbounds i8, ptr %5, i64 16
  %10 = getelementptr inbounds i8, ptr %5, i64 8
  br label %19

11:                                               ; preds = %2
  %12 = tail call ptr @__cxa_allocate_exception(i64 376) #26
  call void @_ZNSaIcEC1Ev(ptr noundef nonnull align 1 dereferenceable(1) %4) #26
  invoke void @_ZNSt7__cxx1112basic_stringIcSt11char_traitsIcESaIcEEC2IS3_EEPKcRKS3_(ptr noundef nonnull align 8 dereferenceable(32) %3, ptr noundef nonnull @.str.164, ptr noundef nonnull align 1 dereferenceable(1) %4)
          to label %13 unwind label %.thread

13:                                               ; preds = %11
  invoke void @_ZN3nix10UsageErrorCI2NS_9BaseErrorEIJEEERKNSt7__cxx1112basic_stringIcSt11char_traitsIcESaIcEEEDpRKT_(ptr noundef nonnull align 8 dereferenceable(376) %12, ptr noundef nonnull align 8 dereferenceable(32) %3)
          to label %14 unwind label %16

14:                                               ; preds = %13
  invoke void @__cxa_throw(ptr nonnull %12, ptr nonnull @_ZTIN3nix10UsageErrorE, ptr nonnull @_ZN3nix10UsageErrorD2Ev) #27
          to label %37 unwind label %16

.thread:                                          ; preds = %11
  %15 = landingpad { ptr, i32 }
          cleanup
  call void @_ZNSaIcED1Ev(ptr noundef nonnull align 1 dereferenceable(1) %4) #26
  br label %18

16:                                               ; preds = %13, %14
  %.07 = phi i1 [ false, %14 ], [ true, %13 ]
  %17 = landingpad { ptr, i32 }
          cleanup
  call void @_ZNSt7__cxx1112basic_stringIcSt11char_traitsIcESaIcEED2Ev(ptr noundef nonnull align 8 dereferenceable(32) %3) #26
  call void @_ZNSaIcED1Ev(ptr noundef nonnull align 1 dereferenceable(1) %4) #26
  br i1 %.07, label %18, label %36

18:                                               ; preds = %.thread, %16
  %.pn17 = phi { ptr, i32 } [ %15, %.thread ], [ %17, %16 ]
  call void @__cxa_free_exception(ptr %12) #26
  br label %36

19:                                               ; preds = %.lr.ph, %_ZN3nix9StorePathD2Ev.exit
  %.sroa.012.019 = phi ptr [ %.sroa.012.018, %.lr.ph ], [ %.sroa.012.0, %_ZN3nix9StorePathD2Ev.exit ]
  %20 = getelementptr inbounds i8, ptr %.sroa.012.019, i64 16
  %21 = load ptr, ptr @_ZN9nix_storeL5storeE, align 8
  %22 = load ptr, ptr %20, align 8
  %23 = getelementptr inbounds i8, ptr %.sroa.012.019, i64 24
  %24 = load i64, ptr %23, align 8
  call void @_ZNK3nix5Store22followLinksToStorePathESt17basic_string_viewIcSt11char_traitsIcEE(ptr dead_on_unwind nonnull writable sret(%"class.nix::StorePath") align 8 %5, ptr noundef nonnull align 8 dereferenceable(264) %21, i64 %24, ptr %22)
  %25 = load ptr, ptr %21, align 8
  %26 = getelementptr inbounds i8, ptr %25, i64 280
  %27 = load ptr, ptr %26, align 8
  invoke void %27(ptr noundef nonnull align 8 dereferenceable(264) %21, ptr noundef nonnull align 8 dereferenceable(32) %5)
          to label %28 unwind label %34

28:                                               ; preds = %19
  %29 = load ptr, ptr %5, align 8
  %30 = icmp eq ptr %29, %9
  br i1 %30, label %_ZNKSt7__cxx1112basic_stringIcSt11char_traitsIcESaIcEE11_M_is_localEv.exit.thread.i.i.i, label %_ZNKSt7__cxx1112basic_stringIcSt11char_traitsIcESaIcEE11_M_is_localEv.exit.i.i.i

_ZNKSt7__cxx1112basic_stringIcSt11char_traitsIcESaIcEE11_M_is_localEv.exit.thread.i.i.i: ; preds = %28
  %31 = load i64, ptr %10, align 8
  %32 = icmp ult i64 %31, 16
  call void @llvm.assume(i1 %32)
  br label %_ZN3nix9StorePathD2Ev.exit

_ZNKSt7__cxx1112basic_stringIcSt11char_traitsIcESaIcEE11_M_is_localEv.exit.i.i.i: ; preds = %28
  call void @_ZdlPv(ptr noundef %29) #29
  br label %_ZN3nix9StorePathD2Ev.exit

_ZN3nix9StorePathD2Ev.exit:                       ; preds = %_ZNKSt7__cxx1112basic_stringIcSt11char_traitsIcESaIcEE11_M_is_localEv.exit.thread.i.i.i, %_ZNKSt7__cxx1112basic_stringIcSt11char_traitsIcESaIcEE11_M_is_localEv.exit.i.i.i
  call void @_ZNSaIcED2Ev(ptr noundef nonnull align 1 dereferenceable(1) %5) #26
  %.sroa.012.0 = load ptr, ptr %.sroa.012.019, align 8
  %33 = icmp eq ptr %.sroa.012.0, %1
  br i1 %33, label %._crit_edge, label %19

34:                                               ; preds = %19
  %35 = landingpad { ptr, i32 }
          cleanup
  call void @_ZN3nix9StorePathD2Ev(ptr noundef nonnull align 8 dereferenceable(32) %5) #26
  br label %36

._crit_edge:                                      ; preds = %_ZN3nix9StorePathD2Ev.exit, %.preheader
  ret void

36:                                               ; preds = %16, %18, %34
  %.pn10 = phi { ptr, i32 } [ %35, %34 ], [ %.pn17, %18 ], [ %17, %16 ]
  resume { ptr, i32 } %.pn10

37:                                               ; preds = %14
  unreachable
}